; Function Attrs: mustprogress nofree norecurse nounwind memory(read, argmem: readwrite, inaccessiblemem: none) uwtable
define hidden noundef i64 @_ZNK6google8protobuf8internal15ThreadSafeArena9SpaceUsedEv(ptr noundef nonnull readonly align 8 captures(none) dereferenceable(32) %0) local_unnamed_addr #15 align 2 personality ptr @__gxx_personality_v0 {
  %2 = getelementptr inbounds nuw i8, ptr %0, i64 16
  %3 = load atomic i64, ptr %2 acquire, align 8
  %.not8 = icmp eq i64 %3, 0
  br i1 %.not8, label %._crit_edge, label %.lr.ph.preheader

.lr.ph.preheader:                                 ; preds = %1
  %.0.i.i = inttoptr i64 %3 to ptr
  br label %.lr.ph

.lr.ph:                                           ; preds = %.lr.ph.preheader, %.lr.ph
  %.010 = phi i64 [ %16, %.lr.ph ], [ 0, %.lr.ph.preheader ]
  %.059 = phi ptr [ %18, %.lr.ph ], [ %.0.i.i, %.lr.ph.preheader ]
  %4 = getelementptr inbounds nuw i8, ptr %.059, i64 40
  %5 = load ptr, ptr %4, align 8, !tbaa !22
  %6 = getelementptr inbounds nuw i8, ptr %.059, i64 8
  %7 = load ptr, ptr %6, align 8, !tbaa !21
  %8 = getelementptr inbounds nuw i8, ptr %7, i64 24
  %9 = ptrtoint ptr %5 to i64
  %10 = ptrtoint ptr %8 to i64
  %11 = getelementptr inbounds nuw i8, ptr %.059, i64 24
  %12 = load i64, ptr %11, align 8, !tbaa !13
  %13 = add i64 %.010, -56
  %14 = add i64 %13, %9
  %15 = add i64 %14, %12
  %16 = sub i64 %15, %10
  %17 = getelementptr inbounds nuw i8, ptr %.059, i64 16
  %18 = load ptr, ptr %17, align 8, !tbaa !41
  %.not = icmp eq ptr %18, null
  br i1 %.not, label %._crit_edge, label %.lr.ph, !llvm.loop !66

._crit_edge:                                      ; preds = %.lr.ph, %1
  %.0.lcssa = phi i64 [ 0, %1 ], [ %16, %.lr.ph ]
  %19 = getelementptr inbounds nuw i8, ptr %0, i64 8
  %20 = load i64, ptr %19, align 8, !tbaa !40
  %.not6 = icmp ult i64 %20, 8
  %.neg = select i1 %.not6, i64 0, i64 -40
  %21 = add i64 %.neg, %.0.lcssa
  ret i64 %21
}